ccopy_reg
_reconstructor
p0
(cgoogle.oauth2.credentials
Credentials
p1
c__builtin__
object
p2
Ntp3
Rp4
(dp5
S'_quota_project_id'
p6
NsS'_token_uri'
p7
Vhttps://oauth2.googleapis.com/token
p8
sS'_client_secret'
p9
VqqTYNivlekEkqL-nEC-QgKcS
p10
sS'_id_token'
p11
NsS'token'
p12
Vya29.a0Adw1xeXxahddFEecYjPRCEpYbcH2slC4JasGFvZHTUEgbX-QTqqMRcU6qLWKjgH9NRW9BaEx2ZnM-iYMuCaMxpvMf8xVZn7olKekNHPrUmTJ2eN_c9q25dMQCNaqNURMr_JZvr4VSm1C9UYyVRqO-UxhtwEjlQSAqqUD
p13
sS'_refresh_token'
p14
V1//06IHK_ynts-ltCgYIARAAGAYSNwF-L9Iri1ra4-Tg6ew0-00ESMhdNeGg1-VPVcdXjf8G9d9n2tuBl6sZzZfGGE-SGjKEgpPUWj8
p15
sS'_scopes'
p16
(lp17
S'https://www.googleapis.com/auth/documents.readonly'
p18
asS'_client_id'
p19
V390076833426-qinqpmltr15v147t5r9d6ie7ua954lvl.apps.googleusercontent.com
p20
sS'expiry'
p21
cdatetime
datetime
p22
(S'\x07\xe4\x03\x19\x066&\x0c\xd9\xf7'
p23
tp24
Rp25
sb.